target datalayout = "e-m:e-p270:32:32-p271:32:32-p272:64:64-i64:64-i128:128-f80:128-n8:16:32:64-S128"
target triple = "x86_64-unknown-linux-gnu"

%"class.icu_75::CurrencyPluralInfo" = type <{ %"class.icu_75::UObject", ptr, ptr, ptr, i32, [4 x i8] }>
%"class.icu_75::UObject" = type { ptr }

; Function Attrs: mustprogress nounwind uwtable
define internal noundef signext i8 @_ZL9U_SUCCESS10UErrorCode(i32 noundef %code) #0 {
entry:
  %code.addr = alloca i32, align 4
  store i32 %code, ptr %code.addr, align 4
  %0 = load i32, ptr %code.addr, align 4
  %cmp = icmp sle i32 %0, 0
  %conv = zext i1 %cmp to i8
  ret i8 %conv
}

; Function Attrs: mustprogress uwtable
define void @_ZN6icu_7518CurrencyPluralInfo14setPluralRulesERKNS_13UnicodeStringER10UErrorCode(ptr noundef nonnull align 8 dereferenceable(36) %this, ptr noundef nonnull align 8 dereferenceable(64) %ruleDescription, ptr noundef nonnull align 4 dereferenceable(4) %status) #1 align 2 {
entry:
  %this.addr = alloca ptr, align 8
  %ruleDescription.addr = alloca ptr, align 8
  %status.addr = alloca ptr, align 8
  store ptr %this, ptr %this.addr, align 8
  store ptr %ruleDescription, ptr %ruleDescription.addr, align 8
  store ptr %status, ptr %status.addr, align 8
  %this1 = load ptr, ptr %this.addr, align 8
  %0 = load ptr, ptr %status.addr, align 8
  %1 = load i32, ptr %0, align 4
  %call = call noundef signext i8 @_ZL9U_SUCCESS10UErrorCode(i32 noundef %1)
  %tobool = icmp ne i8 %call, 0
  br i1 %tobool, label %if.then, label %if.end

if.then:                                          ; preds = %entry
  %fPluralRules = getelementptr inbounds %"class.icu_75::CurrencyPluralInfo", ptr %this1, i32 0, i32 2
  %2 = load ptr, ptr %fPluralRules, align 8
  %isnull = icmp eq ptr %2, null
  br i1 %isnull, label %delete.end, label %delete.notnull

delete.notnull:                                   ; preds = %if.then
  %vtable = load ptr, ptr %2, align 8
  %vfn = getelementptr inbounds ptr, ptr %vtable, i64 1
  %3 = load ptr, ptr %vfn, align 8
  call void %3(ptr noundef nonnull align 8 dereferenceable(28) %2) #7
  br label %delete.end

delete.end:                                       ; preds = %delete.notnull, %if.then
  %4 = load ptr, ptr %ruleDescription.addr, align 8
  %5 = load ptr, ptr %status.addr, align 8
  %call2 = call noundef ptr @_ZN6icu_7511PluralRules11createRulesERKNS_13UnicodeStringER10UErrorCode(ptr noundef nonnull align 8 dereferenceable(64) %4, ptr noundef nonnull align 4 dereferenceable(4) %5)
  %fPluralRules3 = getelementptr inbounds %"class.icu_75::CurrencyPluralInfo", ptr %this1, i32 0, i32 2
  store ptr %call2, ptr %fPluralRules3, align 8
  br label %if.end

if.end:                                           ; preds = %delete.end, %entry
  ret void
}