; Function Attrs: mustprogress uwtable
define void @_ZN6icu_7518CurrencyPluralInfo14setPluralRulesERKNS_13UnicodeStringER10UErrorCode(ptr nocapture noundef nonnull align 8 dereferenceable(36) %this, ptr noundef nonnull align 8 dereferenceable(64) %ruleDescription, ptr noundef nonnull align 4 dereferenceable(4) %status) local_unnamed_addr #1 align 2 {
entry:
  %0 = load i32, ptr %status, align 4
  %cmp.i = icmp sgt i32 %0, 0
  br i1 %cmp.i, label %if.end, label %if.then

if.then:                                          ; preds = %entry
  %fPluralRules = getelementptr inbounds i8, ptr %this, i64 16
  %1 = load ptr, ptr %fPluralRules, align 8
  %isnull = icmp eq ptr %1, null
  br i1 %isnull, label %delete.end, label %delete.notnull

delete.notnull:                                   ; preds = %if.then
  %vtable = load ptr, ptr %1, align 8
  %vfn = getelementptr inbounds i8, ptr %vtable, i64 8
  %2 = load ptr, ptr %vfn, align 8
  tail call void %2(ptr noundef nonnull align 8 dereferenceable(28) %1) #10
  br label %delete.end

delete.end:                                       ; preds = %delete.notnull, %if.then
  %call2 = tail call noundef ptr @_ZN6icu_7511PluralRules11createRulesERKNS_13UnicodeStringER10UErrorCode(ptr noundef nonnull align 8 dereferenceable(64) %ruleDescription, ptr noundef nonnull align 4 dereferenceable(4) %status)
  store ptr %call2, ptr %fPluralRules, align 8
  br label %if.end

if.end:                                           ; preds = %delete.end, %entry
  ret void
}